target datalayout = "e-m:e-p270:32:32-p271:32:32-p272:64:64-i64:64-i128:128-f80:128-n8:16:32:64-S128"
target triple = "x86_64-pc-linux-gnu"

%"struct.duckdb_libpgquery::pg_parser_state_str" = type { i32, i32, [8192 x i8], i64, i64, ptr, i64 }
%struct.__va_list_tag = type { i32, i32, ptr, ptr }

@_ZN17duckdb_libpgqueryL15pg_parser_stateE = internal thread_local global %"struct.duckdb_libpgquery::pg_parser_state_str" zeroinitializer, align 8

; Function Attrs: mustprogress nounwind uwtable
define hidden noundef i32 @_ZN17duckdb_libpgquery6errmsgEPKcz(ptr noundef %0, ...) #6 {
  %2 = alloca ptr, align 8
  %3 = alloca [1 x %struct.__va_list_tag], align 16
  store ptr %0, ptr %2, align 8, !tbaa !14
  call void @llvm.lifetime.start.p0(i64 24, ptr %3) #13
  %4 = getelementptr inbounds [1 x %struct.__va_list_tag], ptr %3, i64 0, i64 0
  call void @llvm.va_start.p0(ptr %4)
  %5 = call align 8 ptr @llvm.threadlocal.address.p0(ptr align 8 @_ZN17duckdb_libpgqueryL15pg_parser_stateE)
  %6 = getelementptr inbounds nuw %"struct.duckdb_libpgquery::pg_parser_state_str", ptr %5, i32 0, i32 2
  %7 = getelementptr inbounds [8192 x i8], ptr %6, i64 0, i64 0
  %8 = load ptr, ptr %2, align 8, !tbaa !14
  %9 = getelementptr inbounds [1 x %struct.__va_list_tag], ptr %3, i64 0, i64 0
  %10 = call i32 @vsnprintf(ptr noundef %7, i64 noundef 8192, ptr noundef %8, ptr noundef %9) #13
  %11 = getelementptr inbounds [1 x %struct.__va_list_tag], ptr %3, i64 0, i64 0
  call void @llvm.va_end.p0(ptr %11)
  call void @llvm.lifetime.end.p0(i64 24, ptr %3) #13
  ret i32 1
}