; Function Attrs: mustprogress nofree nounwind uwtable
define hidden noundef i32 @_ZN17duckdb_libpgquery6errmsgEPKcz(ptr noundef readonly captures(none) %0, ...) local_unnamed_addr #16 {
  %2 = alloca [1 x %struct.__va_list_tag], align 16
  call void @llvm.lifetime.start.p0(i64 24, ptr nonnull %2) #24
  call void @llvm.va_start.p0(ptr nonnull %2)
  %3 = call align 8 ptr @llvm.threadlocal.address.p0(ptr align 8 @_ZN17duckdb_libpgqueryL15pg_parser_stateE)
  %4 = getelementptr inbounds nuw i8, ptr %3, i64 8
  %5 = call i32 @vsnprintf(ptr noundef nonnull %4, i64 noundef 8192, ptr noundef %0, ptr noundef nonnull %2) #24
  call void @llvm.va_end.p0(ptr nonnull %2)
  call void @llvm.lifetime.end.p0(i64 24, ptr nonnull %2) #24
  ret i32 1
}